target datalayout = "e-m:e-p270:32:32-p271:32:32-p272:64:64-i64:64-i128:128-f80:128-n8:16:32:64-S128"
target triple = "x86_64-pc-linux-gnu"

%struct.Wln_Ret_t_ = type { ptr, %struct.Vec_Int_t_, %struct.Vec_Int_t_, %struct.Vec_Int_t_, %struct.Vec_Int_t_, %struct.Vec_Int_t_, %struct.Vec_Int_t_, %struct.Vec_Int_t_, %struct.Vec_Int_t_, %struct.Vec_Int_t_, %struct.Vec_Int_t_, i32, i32 }
%struct.Vec_Int_t_ = type { i32, i32, ptr }
%struct.Wln_Ntk_t_ = type { ptr, ptr, i32, %struct.Vec_Int_t_, %struct.Vec_Int_t_, %struct.Vec_Int_t_, %struct.Vec_Int_t_, ptr, %struct.Vec_Int_t_, ptr, %struct.Vec_Int_t_, %struct.Vec_Int_t_, ptr, %struct.Vec_Str_t_, i32, %struct.Vec_Int_t_, %struct.Vec_Int_t_, %struct.Vec_Int_t_, %struct.Vec_Int_t_, %struct.Vec_Int_t_, %struct.Vec_Int_t_, %struct.Vec_Int_t_, %struct.Vec_Int_t_, ptr, [99 x i32], [99 x i32] }
%struct.Vec_Str_t_ = type { i32, i32, ptr }

; Function Attrs: inlinehint nounwind uwtable
define internal i32 @Vec_IntEntry(ptr noundef %0, i32 noundef %1) #2 {
  %3 = alloca ptr, align 8
  %4 = alloca i32, align 4
  store ptr %0, ptr %3, align 8, !tbaa !29
  store i32 %1, ptr %4, align 4, !tbaa !8
  %5 = load ptr, ptr %3, align 8, !tbaa !29
  %6 = getelementptr inbounds nuw %struct.Vec_Int_t_, ptr %5, i32 0, i32 2
  %7 = load ptr, ptr %6, align 8, !tbaa !31
  %8 = load i32, ptr %4, align 4, !tbaa !8
  %9 = sext i32 %8 to i64
  %10 = getelementptr inbounds i32, ptr %7, i64 %9
  %11 = load i32, ptr %10, align 4, !tbaa !8
  ret i32 %11
}

; Function Attrs: inlinehint nounwind uwtable
define internal ptr @Wln_RetFanouts(ptr noundef %0, i32 noundef %1) #2 {
  %3 = alloca ptr, align 8
  %4 = alloca i32, align 4
  store ptr %0, ptr %3, align 8, !tbaa !3
  store i32 %1, ptr %4, align 4, !tbaa !8
  %5 = load ptr, ptr %3, align 8, !tbaa !3
  %6 = getelementptr inbounds nuw %struct.Wln_Ret_t_, ptr %5, i32 0, i32 2
  %7 = load ptr, ptr %3, align 8, !tbaa !3
  %8 = getelementptr inbounds nuw %struct.Wln_Ret_t_, ptr %7, i32 0, i32 2
  %9 = load i32, ptr %4, align 4, !tbaa !8
  %10 = call i32 @Vec_IntEntry(ptr noundef %8, i32 noundef %9)
  %11 = call ptr @Vec_IntEntryP(ptr noundef %6, i32 noundef %10)
  ret ptr %11
}

; Function Attrs: inlinehint nounwind uwtable
define internal i32 @Wln_ObjRefs(ptr noundef %0, i32 noundef %1) #2 {
  %3 = alloca ptr, align 8
  %4 = alloca i32, align 4
  store ptr %0, ptr %3, align 8, !tbaa !18
  store i32 %1, ptr %4, align 4, !tbaa !8
  %5 = load ptr, ptr %3, align 8, !tbaa !18
  %6 = getelementptr inbounds nuw %struct.Wln_Ntk_t_, ptr %5, i32 0, i32 19
  %7 = load i32, ptr %4, align 4, !tbaa !8
  %8 = call i32 @Vec_IntEntry(ptr noundef %6, i32 noundef %7)
  ret i32 %8
}

; Function Attrs: inlinehint nounwind uwtable
define internal ptr @Vec_IntEntryP(ptr noundef %0, i32 noundef %1) #2 {
  %3 = alloca ptr, align 8
  %4 = alloca i32, align 4
  store ptr %0, ptr %3, align 8, !tbaa !29
  store i32 %1, ptr %4, align 4, !tbaa !8
  %5 = load ptr, ptr %3, align 8, !tbaa !29
  %6 = getelementptr inbounds nuw %struct.Vec_Int_t_, ptr %5, i32 0, i32 2
  %7 = load ptr, ptr %6, align 8, !tbaa !31
  %8 = load i32, ptr %4, align 4, !tbaa !8
  %9 = sext i32 %8 to i64
  %10 = getelementptr inbounds i32, ptr %7, i64 %9
  ret ptr %10
}

; Function Attrs: nounwind uwtable
define void @Wln_RetMarkChanges_rec(ptr noundef %0, i32 noundef %1) #0 {
  %3 = alloca ptr, align 8
  %4 = alloca i32, align 4
  %5 = alloca i32, align 4
  %6 = alloca i32, align 4
  %7 = alloca ptr, align 8
  %8 = alloca ptr, align 8
  %9 = alloca i32, align 4
  store ptr %0, ptr %3, align 8, !tbaa !3
  store i32 %1, ptr %4, align 4, !tbaa !8
  call void @llvm.lifetime.start.p0(i64 4, ptr %5) #11
  call void @llvm.lifetime.start.p0(i64 4, ptr %6) #11
  call void @llvm.lifetime.start.p0(i64 8, ptr %7) #11
  call void @llvm.lifetime.start.p0(i64 8, ptr %8) #11
  %10 = load ptr, ptr %3, align 8, !tbaa !3
  %11 = getelementptr inbounds nuw %struct.Wln_Ret_t_, ptr %10, i32 0, i32 6
  %12 = load i32, ptr %4, align 4, !tbaa !8
  %13 = call ptr @Vec_IntEntryP(ptr noundef %11, i32 noundef %12)
  store ptr %13, ptr %8, align 8, !tbaa !15
  %14 = load ptr, ptr %8, align 8, !tbaa !15
  %15 = load i32, ptr %14, align 4, !tbaa !8
  %16 = icmp slt i32 %15, 0
  br i1 %16, label %17, label %18

17:                                               ; preds = %2
  store i32 1, ptr %9, align 4
  br label %71

18:                                               ; preds = %2
  %19 = load ptr, ptr %8, align 8, !tbaa !15
  store i32 -1, ptr %19, align 4, !tbaa !8
  store i32 0, ptr %5, align 4, !tbaa !8
  br label %20

20:                                               ; preds = %67, %18
  %21 = load i32, ptr %5, align 4, !tbaa !8
  %22 = load ptr, ptr %3, align 8, !tbaa !3
  %23 = getelementptr inbounds nuw %struct.Wln_Ret_t_, ptr %22, i32 0, i32 0
  %24 = load ptr, ptr %23, align 8, !tbaa !10
  %25 = load i32, ptr %4, align 4, !tbaa !8
  %26 = call i32 @Wln_ObjRefs(ptr noundef %24, i32 noundef %25)
  %27 = icmp slt i32 %21, %26
  br i1 %27, label %28, label %51

28:                                               ; preds = %20
  %29 = load ptr, ptr %3, align 8, !tbaa !3
  %30 = load i32, ptr %4, align 4, !tbaa !8
  %31 = call ptr @Wln_RetFanouts(ptr noundef %29, i32 noundef %30)
  %32 = load i32, ptr %5, align 4, !tbaa !8
  %33 = mul nsw i32 2, %32
  %34 = sext i32 %33 to i64
  %35 = getelementptr inbounds i32, ptr %31, i64 %34
  %36 = load i32, ptr %35, align 4, !tbaa !8
  store i32 %36, ptr %6, align 4, !tbaa !8
  br i1 true, label %37, label %51

37:                                               ; preds = %28
  %38 = load ptr, ptr %3, align 8, !tbaa !3
  %39 = getelementptr inbounds nuw %struct.Wln_Ret_t_, ptr %38, i32 0, i32 1
  %40 = load ptr, ptr %3, align 8, !tbaa !3
  %41 = load i32, ptr %4, align 4, !tbaa !8
  %42 = call ptr @Wln_RetFanouts(ptr noundef %40, i32 noundef %41)
  %43 = load i32, ptr %5, align 4, !tbaa !8
  %44 = mul nsw i32 2, %43
  %45 = add nsw i32 %44, 1
  %46 = sext i32 %45 to i64
  %47 = getelementptr inbounds i32, ptr %42, i64 %46
  %48 = load i32, ptr %47, align 4, !tbaa !8
  %49 = call ptr @Vec_IntEntryP(ptr noundef %39, i32 noundef %48)
  store ptr %49, ptr %7, align 8, !tbaa !15
  %50 = icmp ne ptr %49, null
  br label %51

51:                                               ; preds = %37, %28, %20
  %52 = phi i1 [ false, %28 ], [ false, %20 ], [ %50, %37 ]
  br i1 %52, label %53, label %70

53:                                               ; preds = %51
  %54 = load i32, ptr %6, align 4, !tbaa !8
  %55 = icmp ne i32 %54, 0
  br i1 %55, label %57, label %56

56:                                               ; preds = %53
  br label %66

57:                                               ; preds = %53
  %58 = load ptr, ptr %7, align 8, !tbaa !15
  %59 = getelementptr inbounds i32, ptr %58, i64 0
  %60 = load i32, ptr %59, align 4, !tbaa !8
  %61 = icmp ne i32 %60, 0
  br i1 %61, label %65, label %62

62:                                               ; preds = %57
  %63 = load ptr, ptr %3, align 8, !tbaa !3
  %64 = load i32, ptr %6, align 4, !tbaa !8
  call void @Wln_RetMarkChanges_rec(ptr noundef %63, i32 noundef %64)
  br label %65

65:                                               ; preds = %62, %57
  br label %66

66:                                               ; preds = %65, %56
  br label %67

67:                                               ; preds = %66
  %68 = load i32, ptr %5, align 4, !tbaa !8
  %69 = add nsw i32 %68, 1
  store i32 %69, ptr %5, align 4, !tbaa !8
  br label %20, !llvm.loop !83

70:                                               ; preds = %51
  store i32 0, ptr %9, align 4
  br label %71

71:                                               ; preds = %70, %17
  call void @llvm.lifetime.end.p0(i64 8, ptr %8) #11
  call void @llvm.lifetime.end.p0(i64 8, ptr %7) #11
  call void @llvm.lifetime.end.p0(i64 4, ptr %6) #11
  call void @llvm.lifetime.end.p0(i64 4, ptr %5) #11
  %72 = load i32, ptr %9, align 4
  switch i32 %72, label %74 [
    i32 0, label %73
    i32 1, label %73
  ]

73:                                               ; preds = %71, %71
  ret void

74:                                               ; preds = %71
  unreachable
}