; Function Attrs: nofree nosync nounwind memory(readwrite, inaccessiblemem: none) uwtable
define void @Wln_RetMarkChanges_rec(ptr noundef readonly captures(none) %0, i32 noundef %1) local_unnamed_addr #12 {
  %3 = getelementptr i8, ptr %0, i64 96
  %.val = load ptr, ptr %3, align 8, !tbaa !12
  %4 = sext i32 %1 to i64
  %5 = getelementptr inbounds i32, ptr %.val, i64 %4
  %6 = load i32, ptr %5, align 4, !tbaa !13
  %7 = icmp slt i32 %6, 0
  br i1 %7, label %.critedge, label %8

8:                                                ; preds = %2
  store i32 -1, ptr %5, align 4, !tbaa !13
  %9 = getelementptr i8, ptr %0, i64 32
  %10 = load ptr, ptr %0, align 8, !tbaa !3
  %11 = getelementptr i8, ptr %10, i64 256
  %.val2326 = load ptr, ptr %11, align 8, !tbaa !12
  %12 = getelementptr inbounds i32, ptr %.val2326, i64 %4
  %13 = load i32, ptr %12, align 4, !tbaa !13
  %14 = icmp sgt i32 %13, 0
  br i1 %14, label %.lr.ph, label %.critedge

.lr.ph:                                           ; preds = %8
  %15 = getelementptr i8, ptr %0, i64 16
  br label %16

16:                                               ; preds = %.lr.ph, %34
  %17 = phi ptr [ %10, %.lr.ph ], [ %35, %34 ]
  %indvars.iv = phi i64 [ 0, %.lr.ph ], [ %indvars.iv.next, %34 ]
  %.val25 = load ptr, ptr %9, align 8, !tbaa !12
  %18 = getelementptr inbounds i32, ptr %.val25, i64 %4
  %19 = load i32, ptr %18, align 4, !tbaa !13
  %20 = sext i32 %19 to i64
  %21 = getelementptr inbounds i32, ptr %.val25, i64 %20
  %22 = shl nuw nsw i64 %indvars.iv, 1
  %23 = getelementptr inbounds nuw i32, ptr %21, i64 %22
  %24 = load i32, ptr %23, align 4, !tbaa !13
  %25 = or disjoint i64 %22, 1
  %26 = getelementptr inbounds nuw i32, ptr %21, i64 %25
  %27 = load i32, ptr %26, align 4, !tbaa !13
  %.val22 = load ptr, ptr %15, align 8, !tbaa !12
  %28 = sext i32 %27 to i64
  %29 = getelementptr inbounds i32, ptr %.val22, i64 %28
  %.not = icmp eq ptr %.val22, null
  br i1 %.not, label %.critedge, label %30

30:                                               ; preds = %16
  %.not20 = icmp eq i32 %24, 0
  br i1 %.not20, label %34, label %31

31:                                               ; preds = %30
  %32 = load i32, ptr %29, align 4, !tbaa !13
  %.not21 = icmp eq i32 %32, 0
  br i1 %.not21, label %33, label %34

33:                                               ; preds = %31
  tail call void @Wln_RetMarkChanges_rec(ptr noundef nonnull %0, i32 noundef %24)
  %.pre = load ptr, ptr %0, align 8, !tbaa !3
  br label %34

34:                                               ; preds = %30, %33, %31
  %35 = phi ptr [ %17, %30 ], [ %.pre, %33 ], [ %17, %31 ]
  %indvars.iv.next = add nuw nsw i64 %indvars.iv, 1
  %36 = getelementptr i8, ptr %35, i64 256
  %.val23 = load ptr, ptr %36, align 8, !tbaa !12
  %37 = getelementptr inbounds i32, ptr %.val23, i64 %4
  %38 = load i32, ptr %37, align 4, !tbaa !13
  %39 = sext i32 %38 to i64
  %40 = icmp slt i64 %indvars.iv.next, %39
  br i1 %40, label %16, label %.critedge, !llvm.loop !79

.critedge:                                        ; preds = %34, %16, %8, %2
  ret void
}